target datalayout = "e-m:e-p270:32:32-p271:32:32-p272:64:64-i64:64-i128:128-f80:128-n8:16:32:64-S128"
target triple = "x86_64-pc-linux-gnu"

%struct.UCPTrie = type { ptr, %union.UCPTrieData, i32, i32, i32, i16, i8, i8, i32, i16, i16, i32, i32 }
%union.UCPTrieData = type { ptr }
%struct.USetAdder = type { ptr, ptr, ptr, ptr, ptr, ptr }

@_ZL10block_trie = internal constant %struct.UCPTrie { ptr @_ZL15block_trieIndex, %union.UCPTrieData { ptr @_ZL14block_trieData }, i32 817, i32 3051, i32 69632, i16 17, i8 1, i8 0, i32 0, i16 0, i16 607, i32 2032, i32 0 }, align 8

; Function Attrs: mustprogress uwtable
define void @ublock_addPropertyStarts_77(ptr noundef %0, ptr noundef nonnull align 4 dereferenceable(4) %1) #2 {
  %3 = alloca ptr, align 8
  %4 = alloca ptr, align 8
  %5 = alloca i32, align 4
  %6 = alloca i32, align 4
  %7 = alloca i32, align 4
  store ptr %0, ptr %3, align 8, !tbaa !33
  store ptr %1, ptr %4, align 8, !tbaa !15
  call void @llvm.lifetime.start.p0(i64 4, ptr %5) #6
  store i32 0, ptr %5, align 4, !tbaa !3
  call void @llvm.lifetime.start.p0(i64 4, ptr %6) #6
  call void @llvm.lifetime.start.p0(i64 4, ptr %7) #6
  br label %8

8:                                                ; preds = %17, %2
  %9 = load i32, ptr %5, align 4, !tbaa !3
  %10 = icmp slt i32 %9, 69632
  br i1 %10, label %11, label %15

11:                                               ; preds = %8
  %12 = load i32, ptr %5, align 4, !tbaa !3
  %13 = call i32 @ucptrie_getRange_77(ptr noundef @_ZL10block_trie, i32 noundef %12, i32 noundef 0, i32 noundef 0, ptr noundef null, ptr noundef null, ptr noundef %7)
  store i32 %13, ptr %6, align 4, !tbaa !3
  %14 = icmp sge i32 %13, 0
  br label %15

15:                                               ; preds = %11, %8
  %16 = phi i1 [ false, %8 ], [ %14, %11 ]
  br i1 %16, label %17, label %28

17:                                               ; preds = %15
  %18 = load ptr, ptr %3, align 8, !tbaa !33
  %19 = getelementptr inbounds nuw %struct.USetAdder, ptr %18, i32 0, i32 1
  %20 = load ptr, ptr %19, align 8, !tbaa !35
  %21 = load ptr, ptr %3, align 8, !tbaa !33
  %22 = getelementptr inbounds nuw %struct.USetAdder, ptr %21, i32 0, i32 0
  %23 = load ptr, ptr %22, align 8, !tbaa !38
  %24 = load i32, ptr %5, align 4, !tbaa !3
  %25 = shl i32 %24, 4
  call void %20(ptr noundef %23, i32 noundef %25)
  %26 = load i32, ptr %6, align 4, !tbaa !3
  %27 = add nsw i32 %26, 1
  store i32 %27, ptr %5, align 4, !tbaa !3
  br label %8, !llvm.loop !39

28:                                               ; preds = %15
  call void @llvm.lifetime.end.p0(i64 4, ptr %7) #6
  call void @llvm.lifetime.end.p0(i64 4, ptr %6) #6
  call void @llvm.lifetime.end.p0(i64 4, ptr %5) #6
  ret void
}