; Function Attrs: mustprogress uwtable
define void @ublock_addPropertyStarts_77(ptr noundef readonly captures(none) %0, ptr noundef nonnull readnone align 4 captures(none) dereferenceable(4) %1) local_unnamed_addr #2 {
  %3 = alloca i32, align 4
  call void @llvm.lifetime.start.p0(i64 4, ptr nonnull %3) #7
  %4 = getelementptr inbounds nuw i8, ptr %0, i64 8
  br label %5

5:                                                ; preds = %2, %8
  %.06 = phi i32 [ 0, %2 ], [ %12, %8 ]
  %6 = call i32 @ucptrie_getRange_77(ptr noundef nonnull @_ZL10block_trie, i32 noundef %.06, i32 noundef 0, i32 noundef 0, ptr noundef null, ptr noundef null, ptr noundef nonnull %3)
  %7 = icmp sgt i32 %6, -1
  br i1 %7, label %8, label %.critedge

8:                                                ; preds = %5
  %9 = load ptr, ptr %4, align 8, !tbaa !22
  %10 = load ptr, ptr %0, align 8, !tbaa !25
  %11 = shl nuw nsw i32 %.06, 4
  call void %9(ptr noundef %10, i32 noundef %11)
  %12 = add nuw nsw i32 %6, 1
  %13 = icmp samesign ult i32 %6, 69631
  br i1 %13, label %5, label %.critedge, !llvm.loop !26

.critedge:                                        ; preds = %8, %5
  call void @llvm.lifetime.end.p0(i64 4, ptr nonnull %3) #7
  ret void
}